; Function Attrs: mustprogress uwtable
define internal noundef zeroext i1 @_ZNK9grpc_core12_GLOBAL__N_131GoogleCloud2ProdResolverFactory10IsValidUriERKNS_3URIE(ptr nocapture nonnull readnone align 8 %this, ptr noundef nonnull align 8 dereferenceable(200) %uri) unnamed_addr #3 align 2 {
entry:
  %authority_.i = getelementptr inbounds i8, ptr %uri, i64 32
  %call2 = tail call noundef zeroext i1 @_ZNKSt7__cxx1112basic_stringIcSt11char_traitsIcESaIcEE5emptyEv(ptr noundef nonnull align 8 dereferenceable(32) %authority_.i) #18
  br i1 %call2, label %return, label %if.then

if.then:                                          ; preds = %entry
  tail call void (ptr, i32, i32, ptr, ...) @gpr_log(ptr noundef nonnull @.str.2, i32 noundef 281, i32 noundef 2, ptr noundef nonnull @.str.3)
  br label %return

return:                                           ; preds = %entry, %if.then
  ret i1 %call2
}